	.file	"sum_vec.cpp"
	.abiversion 2
	.section	".text"
	.section	.rodata
	.type	_ZStL19piecewise_construct, @object
	.size	_ZStL19piecewise_construct, 1
_ZStL19piecewise_construct:
	.zero	1
	.lcomm	_ZStL8__ioinit,1,1
	.type	_ZStL8__ioinit, @object
	.section	.text._ZNKSt6chrono8durationIlSt5ratioILl1ELl1000000000EEE5countEv,"axG",@progbits,_ZNKSt6chrono8durationIlSt5ratioILl1ELl1000000000EEE5countEv,comdat
	.align 2
	.weak	_ZNKSt6chrono8durationIlSt5ratioILl1ELl1000000000EEE5countEv
	.type	_ZNKSt6chrono8durationIlSt5ratioILl1ELl1000000000EEE5countEv, @function
_ZNKSt6chrono8durationIlSt5ratioILl1ELl1000000000EEE5countEv:
.LFB1773:
	.cfi_startproc
	std 31,-8(1)
	stdu 1,-64(1)
	.cfi_def_cfa_offset 64
	.cfi_offset 31, -8
	mr 31,1
	.cfi_def_cfa_register 31
	std 3,40(31)
	ld 9,40(31)
	ld 9,0(9)
	mr 3,9
	addi 1,31,64
	.cfi_def_cfa 1, 0
	ld 31,-8(1)
	blr
	.long 0
	.byte 0,9,0,0,128,1,0,1
	.cfi_endproc
.LFE1773:
	.size	_ZNKSt6chrono8durationIlSt5ratioILl1ELl1000000000EEE5countEv,.-_ZNKSt6chrono8durationIlSt5ratioILl1ELl1000000000EEE5countEv
	.section	.text._ZNSt6chrono8durationIlSt5ratioILl1ELl1000000000EEEC1IlvEERKT_,"axG",@progbits,_ZNSt6chrono8durationIlSt5ratioILl1ELl1000000000EEEC1IlvEERKT_,comdat
	.align 2
	.weak	_ZNSt6chrono8durationIlSt5ratioILl1ELl1000000000EEEC1IlvEERKT_
	.type	_ZNSt6chrono8durationIlSt5ratioILl1ELl1000000000EEEC1IlvEERKT_, @function
_ZNSt6chrono8durationIlSt5ratioILl1ELl1000000000EEEC1IlvEERKT_:
.LFB1778:
	.cfi_startproc
	std 31,-8(1)
	stdu 1,-64(1)
	.cfi_def_cfa_offset 64
	.cfi_offset 31, -8
	mr 31,1
	.cfi_def_cfa_register 31
	std 3,40(31)
	std 4,32(31)
	ld 9,32(31)
	ld 10,0(9)
	ld 9,40(31)
	std 10,0(9)
	nop
	addi 1,31,64
	.cfi_def_cfa 1, 0
	ld 31,-8(1)
	blr
	.long 0
	.byte 0,9,0,0,128,1,0,1
	.cfi_endproc
.LFE1778:
	.size	_ZNSt6chrono8durationIlSt5ratioILl1ELl1000000000EEEC1IlvEERKT_,.-_ZNSt6chrono8durationIlSt5ratioILl1ELl1000000000EEEC1IlvEERKT_
	.section	.text._ZNSt6chrono13duration_castINS_8durationIlSt5ratioILl1ELl1000000EEEElS2_ILl1ELl1000000000EEEENSt9enable_ifIXsrNS_13__is_durationIT_EE5valueES8_E4typeERKNS1_IT0_T1_EE,"axG",@progbits,_ZNSt6chrono13duration_castINS_8durationIlSt5ratioILl1ELl1000000EEEElS2_ILl1ELl1000000000EEEENSt9enable_ifIXsrNS_13__is_durationIT_EE5valueES8_E4typeERKNS1_IT0_T1_EE,comdat
	.align 2
	.weak	_ZNSt6chrono13duration_castINS_8durationIlSt5ratioILl1ELl1000000EEEElS2_ILl1ELl1000000000EEEENSt9enable_ifIXsrNS_13__is_durationIT_EE5valueES8_E4typeERKNS1_IT0_T1_EE
	.type	_ZNSt6chrono13duration_castINS_8durationIlSt5ratioILl1ELl1000000EEEElS2_ILl1ELl1000000000EEEENSt9enable_ifIXsrNS_13__is_durationIT_EE5valueES8_E4typeERKNS1_IT0_T1_EE, @function
_ZNSt6chrono13duration_castINS_8durationIlSt5ratioILl1ELl1000000EEEElS2_ILl1ELl1000000000EEEENSt9enable_ifIXsrNS_13__is_durationIT_EE5valueES8_E4typeERKNS1_IT0_T1_EE:
.LFB1797:
	.cfi_startproc
.LCF2:
0:	addis 2,12,.TOC.-.LCF2@ha
	addi 2,2,.TOC.-.LCF2@l
	.localentry	_ZNSt6chrono13duration_castINS_8durationIlSt5ratioILl1ELl1000000EEEElS2_ILl1ELl1000000000EEEENSt9enable_ifIXsrNS_13__is_durationIT_EE5valueES8_E4typeERKNS1_IT0_T1_EE,.-_ZNSt6chrono13duration_castINS_8durationIlSt5ratioILl1ELl1000000EEEElS2_ILl1ELl1000000000EEEENSt9enable_ifIXsrNS_13__is_durationIT_EE5valueES8_E4typeERKNS1_IT0_T1_EE
	mflr 0
	std 0,16(1)
	std 31,-8(1)
	stdu 1,-64(1)
	.cfi_def_cfa_offset 64
	.cfi_offset 65, 16
	.cfi_offset 31, -8
	mr 31,1
	.cfi_def_cfa_register 31
	std 3,40(31)
	ld 3,40(31)
	bl _ZNSt6chrono20__duration_cast_implINS_8durationIlSt5ratioILl1ELl1000000EEEES2_ILl1ELl1000EElLb1ELb0EE6__castIlS2_ILl1ELl1000000000EEEES4_RKNS1_IT_T0_EE
	nop
	mr 9,3
	mr 3,9
	addi 1,31,64
	.cfi_def_cfa 1, 0
	ld 0,16(1)
	mtlr 0
	ld 31,-8(1)
	blr
	.long 0
	.byte 0,9,0,1,128,1,0,1
	.cfi_endproc
.LFE1797:
	.size	_ZNSt6chrono13duration_castINS_8durationIlSt5ratioILl1ELl1000000EEEElS2_ILl1ELl1000000000EEEENSt9enable_ifIXsrNS_13__is_durationIT_EE5valueES8_E4typeERKNS1_IT0_T1_EE,.-_ZNSt6chrono13duration_castINS_8durationIlSt5ratioILl1ELl1000000EEEElS2_ILl1ELl1000000000EEEENSt9enable_ifIXsrNS_13__is_durationIT_EE5valueES8_E4typeERKNS1_IT0_T1_EE
	.section	.text._ZNSt6chronomiINS_3_V212system_clockENS_8durationIlSt5ratioILl1ELl1000000000EEEES6_EENSt11common_typeIJT0_T1_EE4typeERKNS_10time_pointIT_S8_EERKNSC_ISD_S9_EE,"axG",@progbits,_ZNSt6chronomiINS_3_V212system_clockENS_8durationIlSt5ratioILl1ELl1000000000EEEES6_EENSt11common_typeIJT0_T1_EE4typeERKNS_10time_pointIT_S8_EERKNSC_ISD_S9_EE,comdat
	.align 2
	.weak	_ZNSt6chronomiINS_3_V212system_clockENS_8durationIlSt5ratioILl1ELl1000000000EEEES6_EENSt11common_typeIJT0_T1_EE4typeERKNS_10time_pointIT_S8_EERKNSC_ISD_S9_EE
	.type	_ZNSt6chronomiINS_3_V212system_clockENS_8durationIlSt5ratioILl1ELl1000000000EEEES6_EENSt11common_typeIJT0_T1_EE4typeERKNS_10time_pointIT_S8_EERKNSC_ISD_S9_EE, @function
_ZNSt6chronomiINS_3_V212system_clockENS_8durationIlSt5ratioILl1ELl1000000000EEEES6_EENSt11common_typeIJT0_T1_EE4typeERKNS_10time_pointIT_S8_EERKNSC_ISD_S9_EE:
.LFB1798:
	.cfi_startproc
.LCF3:
0:	addis 2,12,.TOC.-.LCF3@ha
	addi 2,2,.TOC.-.LCF3@l
	.localentry	_ZNSt6chronomiINS_3_V212system_clockENS_8durationIlSt5ratioILl1ELl1000000000EEEES6_EENSt11common_typeIJT0_T1_EE4typeERKNS_10time_pointIT_S8_EERKNSC_ISD_S9_EE,.-_ZNSt6chronomiINS_3_V212system_clockENS_8durationIlSt5ratioILl1ELl1000000000EEEES6_EENSt11common_typeIJT0_T1_EE4typeERKNS_10time_pointIT_S8_EERKNSC_ISD_S9_EE
	mflr 0
	std 0,16(1)
	std 31,-8(1)
	stdu 1,-96(1)
	.cfi_def_cfa_offset 96
	.cfi_offset 65, 16
	.cfi_offset 31, -8
	mr 31,1
	.cfi_def_cfa_register 31
	std 3,40(31)
	std 4,32(31)
	ld 9,-28688(13)
	std 9,72(31)
	li 9,0
	ld 3,40(31)
	bl _ZNKSt6chrono10time_pointINS_3_V212system_clockENS_8durationIlSt5ratioILl1ELl1000000000EEEEE16time_since_epochEv
	nop
	mr 9,3
	std 9,56(31)
	ld 3,32(31)
	bl _ZNKSt6chrono10time_pointINS_3_V212system_clockENS_8durationIlSt5ratioILl1ELl1000000000EEEEE16time_since_epochEv
	nop
	mr 9,3
	std 9,64(31)
	addi 10,31,64
	addi 9,31,56
	mr 4,10
	mr 3,9
	bl _ZNSt6chronomiIlSt5ratioILl1ELl1000000000EElS2_EENSt11common_typeIJNS_8durationIT_T0_EENS4_IT1_T2_EEEE4typeERKS7_RKSA_
	nop
	mr 9,3
	ld 10,72(31)
	ld 8,-28688(13)
	xor. 10,10,8
	li 8,0
	beq 0,.L8
	bl __stack_chk_fail
	nop
.L8:
	mr 3,9
	addi 1,31,96
	.cfi_def_cfa 1, 0
	ld 0,16(1)
	mtlr 0
	ld 31,-8(1)
	blr
	.long 0
	.byte 0,9,0,1,128,1,0,1
	.cfi_endproc
.LFE1798:
	.size	_ZNSt6chronomiINS_3_V212system_clockENS_8durationIlSt5ratioILl1ELl1000000000EEEES6_EENSt11common_typeIJT0_T1_EE4typeERKNS_10time_pointIT_S8_EERKNSC_ISD_S9_EE,.-_ZNSt6chronomiINS_3_V212system_clockENS_8durationIlSt5ratioILl1ELl1000000000EEEES6_EENSt11common_typeIJT0_T1_EE4typeERKNS_10time_pointIT_S8_EERKNSC_ISD_S9_EE
	.section	.text._ZNSt6chronomiIlSt5ratioILl1ELl1000000000EElS2_EENSt11common_typeIJNS_8durationIT_T0_EENS4_IT1_T2_EEEE4typeERKS7_RKSA_,"axG",@progbits,_ZNSt6chronomiIlSt5ratioILl1ELl1000000000EElS2_EENSt11common_typeIJNS_8durationIT_T0_EENS4_IT1_T2_EEEE4typeERKS7_RKSA_,comdat
	.align 2
	.weak	_ZNSt6chronomiIlSt5ratioILl1ELl1000000000EElS2_EENSt11common_typeIJNS_8durationIT_T0_EENS4_IT1_T2_EEEE4typeERKS7_RKSA_
	.type	_ZNSt6chronomiIlSt5ratioILl1ELl1000000000EElS2_EENSt11common_typeIJNS_8durationIT_T0_EENS4_IT1_T2_EEEE4typeERKS7_RKSA_, @function
_ZNSt6chronomiIlSt5ratioILl1ELl1000000000EElS2_EENSt11common_typeIJNS_8durationIT_T0_EENS4_IT1_T2_EEEE4typeERKS7_RKSA_:
.LFB1799:
	.cfi_startproc
.LCF4:
0:	addis 2,12,.TOC.-.LCF4@ha
	addi 2,2,.TOC.-.LCF4@l
	.localentry	_ZNSt6chronomiIlSt5ratioILl1ELl1000000000EElS2_EENSt11common_typeIJNS_8durationIT_T0_EENS4_IT1_T2_EEEE4typeERKS7_RKSA_,.-_ZNSt6chronomiIlSt5ratioILl1ELl1000000000EElS2_EENSt11common_typeIJNS_8durationIT_T0_EENS4_IT1_T2_EEEE4typeERKS7_RKSA_
	mflr 0
	std 0,16(1)
	std 30,-16(1)
	std 31,-8(1)
	stdu 1,-112(1)
	.cfi_def_cfa_offset 112
	.cfi_offset 65, 16
	.cfi_offset 30, -16
	.cfi_offset 31, -8
	mr 31,1
	.cfi_def_cfa_register 31
	std 3,40(31)
	std 4,32(31)
	ld 9,-28688(13)
	std 9,88(31)
	li 9,0
	ld 9,40(31)
	ld 9,0(9)
	std 9,56(31)
	addi 9,31,56
	mr 3,9
	bl _ZNKSt6chrono8durationIlSt5ratioILl1ELl1000000000EEE5countEv
	nop
	mr 30,3
	ld 9,32(31)
	ld 9,0(9)
	std 9,64(31)
	addi 9,31,64
	mr 3,9
	bl _ZNKSt6chrono8durationIlSt5ratioILl1ELl1000000000EEE5countEv
	nop
	mr 9,3
	subf 9,9,30
	std 9,72(31)
	addi 10,31,72
	addi 9,31,80
	mr 4,10
	mr 3,9
	bl _ZNSt6chrono8durationIlSt5ratioILl1ELl1000000000EEEC1IlvEERKT_
	nop
	ld 9,80(31)
	ld 10,88(31)
	ld 8,-28688(13)
	xor. 10,10,8
	li 8,0
	beq 0,.L11
	bl __stack_chk_fail
	nop
.L11:
	mr 3,9
	addi 1,31,112
	.cfi_def_cfa 1, 0
	ld 0,16(1)
	mtlr 0
	ld 30,-16(1)
	ld 31,-8(1)
	blr
	.long 0
	.byte 0,9,0,1,128,2,0,1
	.cfi_endproc
.LFE1799:
	.size	_ZNSt6chronomiIlSt5ratioILl1ELl1000000000EElS2_EENSt11common_typeIJNS_8durationIT_T0_EENS4_IT1_T2_EEEE4typeERKS7_RKSA_,.-_ZNSt6chronomiIlSt5ratioILl1ELl1000000000EElS2_EENSt11common_typeIJNS_8durationIT_T0_EENS4_IT1_T2_EEEE4typeERKS7_RKSA_
	.section	.text._ZNKSt6chrono10time_pointINS_3_V212system_clockENS_8durationIlSt5ratioILl1ELl1000000000EEEEE16time_since_epochEv,"axG",@progbits,_ZNKSt6chrono10time_pointINS_3_V212system_clockENS_8durationIlSt5ratioILl1ELl1000000000EEEEE16time_since_epochEv,comdat
	.align 2
	.weak	_ZNKSt6chrono10time_pointINS_3_V212system_clockENS_8durationIlSt5ratioILl1ELl1000000000EEEEE16time_since_epochEv
	.type	_ZNKSt6chrono10time_pointINS_3_V212system_clockENS_8durationIlSt5ratioILl1ELl1000000000EEEEE16time_since_epochEv, @function
_ZNKSt6chrono10time_pointINS_3_V212system_clockENS_8durationIlSt5ratioILl1ELl1000000000EEEEE16time_since_epochEv:
.LFB1800:
	.cfi_startproc
	std 31,-8(1)
	stdu 1,-64(1)
	.cfi_def_cfa_offset 64
	.cfi_offset 31, -8
	mr 31,1
	.cfi_def_cfa_register 31
	std 3,40(31)
	ld 9,40(31)
	ld 9,0(9)
	mr 3,9
	addi 1,31,64
	.cfi_def_cfa 1, 0
	ld 31,-8(1)
	blr
	.long 0
	.byte 0,9,0,0,128,1,0,1
	.cfi_endproc
.LFE1800:
	.size	_ZNKSt6chrono10time_pointINS_3_V212system_clockENS_8durationIlSt5ratioILl1ELl1000000000EEEEE16time_since_epochEv,.-_ZNKSt6chrono10time_pointINS_3_V212system_clockENS_8durationIlSt5ratioILl1ELl1000000000EEEEE16time_since_epochEv
	.section	.rodata
	.align 3
.LC0:
	.string	"Time taken by sum: "
	.align 3
.LC2:
	.string	" microseconds"
	.section	".toc","aw"
	.align 3
.LC1:
	.quad	_ZSt4cout
.LC3:
	.quad	_ZSt4endlIcSt11char_traitsIcEERSt13basic_ostreamIT_T0_ES6_
	.section	".text"
	.align 2
	.globl main
	.type	main, @function
main:
.LFB1796:
	.cfi_startproc
.LCF6:
0:	addis 2,12,.TOC.-.LCF6@ha
	addi 2,2,.TOC.-.LCF6@l
	.localentry	main,.-main
	mflr 0
	std 0,16(1)
	std 30,-16(1)
	std 31,-8(1)
	stdu 1,-192(1)
	.cfi_def_cfa_offset 192
	.cfi_offset 65, 16
	.cfi_offset 30, -16
	.cfi_offset 31, -8
	mr 31,1
	.cfi_def_cfa_register 31
	ld 9,-28688(13)
	std 9,168(31)
	li 9,0
	lis 9,0x3b9a
	ori 9,9,0xca00
	std 9,80(31)
	li 3,16
	bl _Znam
	nop
	mr 9,3
	std 9,88(31)
	bl rand
	nop
	mr 9,3
	lis 10,0x51eb
	ori 10,10,0x851f
	mulhw 10,9,10
	srawi 8,10,5
	srawi 10,9,31
	subf 10,10,8
	mulli 10,10,100
	subf 9,10,9
	mtvsrwa 0,9
	fcfid 0,0
	stfd 0,136(31)
	bl rand
	nop
	mr 9,3
	lis 10,0x51eb
	ori 10,10,0x851f
	mulhw 10,9,10
	srawi 8,10,5
	srawi 10,9,31
	subf 10,10,8
	mulli 10,10,100
	subf 9,10,9
	mtvsrwa 0,9
	fcfid 0,0
	stfd 0,144(31)
	bl rand
	nop
	mr 9,3
	lis 10,0x51eb
	ori 10,10,0x851f
	mulhw 10,9,10
	srawi 8,10,5
	srawi 10,9,31
	subf 10,10,8
	mulli 10,10,100
	subf 9,10,9
	mtvsrwa 0,9
	fcfid 0,0
	stfd 0,152(31)
	bl rand
	nop
	mr 9,3
	lis 10,0x51eb
	ori 10,10,0x851f
	mulhw 10,9,10
	srawi 8,10,5
	srawi 10,9,31
	subf 10,10,8
	mulli 10,10,100
	subf 9,10,9
	mtvsrwa 0,9
	fcfid 0,0
	stfd 0,160(31)
	li 9,-40
	addi 10,31,176
	lxvd2x 0,10,9
	xxpermdi 0,0,0,2
	xxpermdi 0,0,0,2
	li 9,-80
	addi 10,31,176
	stxvd2x 0,10,9
	li 9,-24
	addi 10,31,176
	lxvd2x 0,10,9
	xxpermdi 0,0,0,2
	xxpermdi 0,0,0,2
	li 9,-64
	addi 10,31,176
	stxvd2x 0,10,9
	bl _ZNSt6chrono3_V212system_clock3nowEv
	nop
	mr 9,3
	std 9,48(31)
#APP
 # 25 "sum_vec.cpp" 1
	# antes
 # 0 "" 2
#NO_APP
	li 9,0
	stw 9,44(31)
.L16:
	lwa 9,44(31)
	ld 10,80(31)
	cmpd 0,10,9
	ble 0,.L15
	li 9,-80
	addi 10,31,176
	lxvd2x 0,10,9
	xxpermdi 12,0,0,2
	li 9,-64
	addi 10,31,176
	lxvd2x 0,10,9
	xxpermdi 0,0,0,2
	xvadddp 0,12,0
	ld 9,88(31)
	xxpermdi 0,0,0,2
	stxvd2x 0,0,9
	lwz 9,44(31)
	addi 9,9,1
	stw 9,44(31)
	b .L16
.L15:
#APP
 # 28 "sum_vec.cpp" 1
	# depois
 # 0 "" 2
#NO_APP
	bl _ZNSt6chrono3_V212system_clock3nowEv
	nop
	mr 9,3
	std 9,56(31)
	addi 10,31,48
	addi 9,31,56
	mr 4,10
	mr 3,9
	bl _ZNSt6chronomiINS_3_V212system_clockENS_8durationIlSt5ratioILl1ELl1000000000EEEES6_EENSt11common_typeIJT0_T1_EE4typeERKNS_10time_pointIT_S8_EERKNSC_ISD_S9_EE
	nop
	mr 9,3
	std 9,72(31)
	addi 9,31,72
	mr 3,9
	bl _ZNSt6chrono13duration_castINS_8durationIlSt5ratioILl1ELl1000000EEEElS2_ILl1ELl1000000000EEEENSt9enable_ifIXsrNS_13__is_durationIT_EE5valueES8_E4typeERKNS1_IT0_T1_EE
	nop
	mr 9,3
	std 9,64(31)
	addis 4,2,.LC0@toc@ha
	addi 4,4,.LC0@toc@l
	addis 9,2,.LC1@toc@ha
	ld 3,.LC1@toc@l(9)
	bl _ZStlsISt11char_traitsIcEERSt13basic_ostreamIcT_ES5_PKc
	nop
	mr 30,3
	addi 9,31,64
	mr 3,9
	bl _ZNKSt6chrono8durationIlSt5ratioILl1ELl1000000EEE5countEv
	nop
	mr 9,3
	mr 4,9
	mr 3,30
	bl _ZNSolsEl
	nop
	mr 9,3
	addis 4,2,.LC2@toc@ha
	addi 4,4,.LC2@toc@l
	mr 3,9
	bl _ZStlsISt11char_traitsIcEERSt13basic_ostreamIcT_ES5_PKc
	nop
	mr 9,3
	addis 10,2,.LC3@toc@ha
	ld 4,.LC3@toc@l(10)
	mr 3,9
	bl _ZNSolsEPFRSoS_E
	nop
	li 9,0
	ld 10,168(31)
	ld 8,-28688(13)
	xor. 10,10,8
	li 8,0
	beq 0,.L18
	bl __stack_chk_fail
	nop
.L18:
	mr 3,9
	addi 1,31,192
	.cfi_def_cfa 1, 0
	ld 0,16(1)
	mtlr 0
	ld 30,-16(1)
	ld 31,-8(1)
	blr
	.long 0
	.byte 0,9,0,1,128,2,0,1
	.cfi_endproc
.LFE1796:
	.size	main,.-main
	.section	.text._ZNSt6chrono20__duration_cast_implINS_8durationIlSt5ratioILl1ELl1000000EEEES2_ILl1ELl1000EElLb1ELb0EE6__castIlS2_ILl1ELl1000000000EEEES4_RKNS1_IT_T0_EE,"axG",@progbits,_ZNSt6chrono20__duration_cast_implINS_8durationIlSt5ratioILl1ELl1000000EEEES2_ILl1ELl1000EElLb1ELb0EE6__castIlS2_ILl1ELl1000000000EEEES4_RKNS1_IT_T0_EE,comdat
	.align 2
	.weak	_ZNSt6chrono20__duration_cast_implINS_8durationIlSt5ratioILl1ELl1000000EEEES2_ILl1ELl1000EElLb1ELb0EE6__castIlS2_ILl1ELl1000000000EEEES4_RKNS1_IT_T0_EE
	.type	_ZNSt6chrono20__duration_cast_implINS_8durationIlSt5ratioILl1ELl1000000EEEES2_ILl1ELl1000EElLb1ELb0EE6__castIlS2_ILl1ELl1000000000EEEES4_RKNS1_IT_T0_EE, @function
_ZNSt6chrono20__duration_cast_implINS_8durationIlSt5ratioILl1ELl1000000EEEES2_ILl1ELl1000EElLb1ELb0EE6__castIlS2_ILl1ELl1000000000EEEES4_RKNS1_IT_T0_EE:
.LFB2064:
	.cfi_startproc
.LCF7:
0:	addis 2,12,.TOC.-.LCF7@ha
	addi 2,2,.TOC.-.LCF7@l
	.localentry	_ZNSt6chrono20__duration_cast_implINS_8durationIlSt5ratioILl1ELl1000000EEEES2_ILl1ELl1000EElLb1ELb0EE6__castIlS2_ILl1ELl1000000000EEEES4_RKNS1_IT_T0_EE,.-_ZNSt6chrono20__duration_cast_implINS_8durationIlSt5ratioILl1ELl1000000EEEES2_ILl1ELl1000EElLb1ELb0EE6__castIlS2_ILl1ELl1000000000EEEES4_RKNS1_IT_T0_EE
	mflr 0
	std 0,16(1)
	std 31,-8(1)
	stdu 1,-96(1)
	.cfi_def_cfa_offset 96
	.cfi_offset 65, 16
	.cfi_offset 31, -8
	mr 31,1
	.cfi_def_cfa_register 31
	std 3,40(31)
	ld 9,-28688(13)
	std 9,72(31)
	li 9,0
	ld 3,40(31)
	bl _ZNKSt6chrono8durationIlSt5ratioILl1ELl1000000000EEE5countEv
	nop
	mr 9,3
	addis 10,2,.LC4@toc@ha
	ld 10,.LC4@toc@l(10)
	mulhd 10,9,10
	sradi 10,10,7
	sradi 9,9,63
	subf 9,9,10
	std 9,56(31)
	addi 10,31,56
	addi 9,31,64
	mr 4,10
	mr 3,9
	bl _ZNSt6chrono8durationIlSt5ratioILl1ELl1000000EEEC1IlvEERKT_
	nop
	ld 9,64(31)
	ld 10,72(31)
	ld 8,-28688(13)
	xor. 10,10,8
	li 8,0
	beq 0,.L21
	bl __stack_chk_fail
	nop
.L21:
	mr 3,9
	addi 1,31,96
	.cfi_def_cfa 1, 0
	ld 0,16(1)
	mtlr 0
	ld 31,-8(1)
	blr
	.long 0
	.byte 0,9,0,1,128,1,0,1
	.cfi_endproc
.LFE2064:
	.size	_ZNSt6chrono20__duration_cast_implINS_8durationIlSt5ratioILl1ELl1000000EEEES2_ILl1ELl1000EElLb1ELb0EE6__castIlS2_ILl1ELl1000000000EEEES4_RKNS1_IT_T0_EE,.-_ZNSt6chrono20__duration_cast_implINS_8durationIlSt5ratioILl1ELl1000000EEEES2_ILl1ELl1000EElLb1ELb0EE6__castIlS2_ILl1ELl1000000000EEEES4_RKNS1_IT_T0_EE
	.section	.text._ZNKSt6chrono8durationIlSt5ratioILl1ELl1000000EEE5countEv,"axG",@progbits,_ZNKSt6chrono8durationIlSt5ratioILl1ELl1000000EEE5countEv,comdat
	.align 2
	.weak	_ZNKSt6chrono8durationIlSt5ratioILl1ELl1000000EEE5countEv
	.type	_ZNKSt6chrono8durationIlSt5ratioILl1ELl1000000EEE5countEv, @function
_ZNKSt6chrono8durationIlSt5ratioILl1ELl1000000EEE5countEv:
.LFB2066:
	.cfi_startproc
	std 31,-8(1)
	stdu 1,-64(1)
	.cfi_def_cfa_offset 64
	.cfi_offset 31, -8
	mr 31,1
	.cfi_def_cfa_register 31
	std 3,40(31)
	ld 9,40(31)
	ld 9,0(9)
	mr 3,9
	addi 1,31,64
	.cfi_def_cfa 1, 0
	ld 31,-8(1)
	blr
	.long 0
	.byte 0,9,0,0,128,1,0,1
	.cfi_endproc
.LFE2066:
	.size	_ZNKSt6chrono8durationIlSt5ratioILl1ELl1000000EEE5countEv,.-_ZNKSt6chrono8durationIlSt5ratioILl1ELl1000000EEE5countEv
	.section	.text._ZNSt6chrono8durationIlSt5ratioILl1ELl1000000EEEC2IlvEERKT_,"axG",@progbits,_ZNSt6chrono8durationIlSt5ratioILl1ELl1000000EEEC5IlvEERKT_,comdat
	.align 2
	.weak	_ZNSt6chrono8durationIlSt5ratioILl1ELl1000000EEEC2IlvEERKT_
	.type	_ZNSt6chrono8durationIlSt5ratioILl1ELl1000000EEEC2IlvEERKT_, @function
_ZNSt6chrono8durationIlSt5ratioILl1ELl1000000EEEC2IlvEERKT_:
.LFB2185:
	.cfi_startproc
	std 31,-8(1)
	stdu 1,-64(1)
	.cfi_def_cfa_offset 64
	.cfi_offset 31, -8
	mr 31,1
	.cfi_def_cfa_register 31
	std 3,40(31)
	std 4,32(31)
	ld 9,32(31)
	ld 10,0(9)
	ld 9,40(31)
	std 10,0(9)
	nop
	addi 1,31,64
	.cfi_def_cfa 1, 0
	ld 31,-8(1)
	blr
	.long 0
	.byte 0,9,0,0,128,1,0,1
	.cfi_endproc
.LFE2185:
	.size	_ZNSt6chrono8durationIlSt5ratioILl1ELl1000000EEEC2IlvEERKT_,.-_ZNSt6chrono8durationIlSt5ratioILl1ELl1000000EEEC2IlvEERKT_
	.weak	_ZNSt6chrono8durationIlSt5ratioILl1ELl1000000EEEC1IlvEERKT_
	.set	_ZNSt6chrono8durationIlSt5ratioILl1ELl1000000EEEC1IlvEERKT_,_ZNSt6chrono8durationIlSt5ratioILl1ELl1000000EEEC2IlvEERKT_
	.section	".toc","aw"
.LC5:
	.quad	_ZNSt8ios_base4InitD1Ev
	.section	".text"
	.align 2
	.type	_Z41__static_initialization_and_destruction_0ii, @function
_Z41__static_initialization_and_destruction_0ii:
.LFB2329:
	.cfi_startproc
.LCF10:
0:	addis 2,12,.TOC.-.LCF10@ha
	addi 2,2,.TOC.-.LCF10@l
	.localentry	_Z41__static_initialization_and_destruction_0ii,.-_Z41__static_initialization_and_destruction_0ii
	mflr 0
	std 0,16(1)
	std 31,-8(1)
	stdu 1,-64(1)
	.cfi_def_cfa_offset 64
	.cfi_offset 65, 16
	.cfi_offset 31, -8
	mr 31,1
	.cfi_def_cfa_register 31
	mr 9,3
	mr 10,4
	stw 9,44(31)
	mr 9,10
	stw 9,40(31)
	lwz 9,44(31)
	cmpwi 0,9,1
	bne 0,.L27
	lwz 10,40(31)
	li 9,0
	ori 9,9,0xffff
	cmpw 0,10,9
	bne 0,.L27
	addis 3,2,_ZStL8__ioinit@toc@ha
	addi 3,3,_ZStL8__ioinit@toc@l
	bl _ZNSt8ios_base4InitC1Ev
	nop
	addis 5,2,__dso_handle@toc@ha
	addi 5,5,__dso_handle@toc@l
	addis 4,2,_ZStL8__ioinit@toc@ha
	addi 4,4,_ZStL8__ioinit@toc@l
	addis 9,2,.LC5@toc@ha
	ld 3,.LC5@toc@l(9)
	bl __cxa_atexit
	nop
.L27:
	nop
	addi 1,31,64
	.cfi_def_cfa 1, 0
	ld 0,16(1)
	mtlr 0
	ld 31,-8(1)
	blr
	.long 0
	.byte 0,9,0,1,128,1,0,1
	.cfi_endproc
.LFE2329:
	.size	_Z41__static_initialization_and_destruction_0ii,.-_Z41__static_initialization_and_destruction_0ii
	.align 2
	.type	_GLOBAL__sub_I_main, @function
_GLOBAL__sub_I_main:
.LFB2330:
	.cfi_startproc
.LCF11:
0:	addis 2,12,.TOC.-.LCF11@ha
	addi 2,2,.TOC.-.LCF11@l
	.localentry	_GLOBAL__sub_I_main,.-_GLOBAL__sub_I_main
	mflr 0
	std 0,16(1)
	std 31,-8(1)
	stdu 1,-48(1)
	.cfi_def_cfa_offset 48
	.cfi_offset 65, 16
	.cfi_offset 31, -8
	mr 31,1
	.cfi_def_cfa_register 31
	li 4,-1
	rldicl 4,4,0,48
	li 3,1
	bl _Z41__static_initialization_and_destruction_0ii
	addi 1,31,48
	.cfi_def_cfa 1, 0
	ld 0,16(1)
	mtlr 0
	ld 31,-8(1)
	blr
	.long 0
	.byte 0,9,0,1,128,1,0,1
	.cfi_endproc
.LFE2330:
	.size	_GLOBAL__sub_I_main,.-_GLOBAL__sub_I_main
	.section	.init_array,"aw"
	.align 3
	.quad	_GLOBAL__sub_I_main
	.section	.rodata
	.align 3
.LC4:
	.quad	2361183241434822607
	.hidden	__dso_handle
	.ident	"GCC: (Ubuntu 9.3.0-17ubuntu1~20.04) 9.3.0"
	.section	.note.GNU-stack,"",@progbits
